target datalayout = "e-m:e-p270:32:32-p271:32:32-p272:64:64-i64:64-i128:128-f80:128-n8:16:32:64-S128"
target triple = "x86_64-pc-linux-gnu"

%struct.WindowAggState = type { %struct.ScanState, ptr, i32, i32, ptr, ptr, ptr, ptr, ptr, i32, i32, i32, i32, i64, i64, i64, i64, ptr, i64, i64, i32, i32, ptr, ptr, i64, i64, %struct.FmgrInfo, %struct.FmgrInfo, i32, i8, i8, i8, i8, ptr, i64, i64, i64, i64, i64, ptr, ptr, ptr, ptr, i8, i8, i8, i8, i8, i8, i8, ptr, ptr, ptr, ptr, ptr, ptr }
%struct.ScanState = type { %struct.PlanState, ptr, ptr, ptr }
%struct.PlanState = type { i32, ptr, ptr, ptr, ptr, ptr, ptr, ptr, ptr, ptr, ptr, ptr, ptr, ptr, ptr, ptr, ptr, ptr, i8, ptr, ptr, ptr, ptr, ptr, i8, i8, i8, i8, i8, i8, i8, i8 }
%struct.FmgrInfo = type { ptr, i32, i16, i8, i8, i8, ptr, ptr, ptr }
%struct.ExprContext = type { i32, ptr, ptr, ptr, ptr, ptr, ptr, ptr, ptr, ptr, i64, i8, i64, i8, ptr, ptr, ptr, ptr }
%struct.List = type { i32, i32, i32, ptr, [0 x %union.ListCell] }
%union.ListCell = type { ptr }
%struct.WindowObjectData = type { i32, ptr, ptr, ptr, i32, i32, i64, i64 }
%struct.ExprState = type { i32, i8, i8, i64, ptr, ptr, ptr, ptr, ptr, i32, i32, ptr, ptr, ptr, ptr, ptr, ptr, ptr }

@.str.3 = private unnamed_addr constant [16 x i8] c"nodeWindowAgg.c\00", align 1
@.str.6 = private unnamed_addr constant [34 x i8] c"unrecognized window seek type: %d\00", align 1
@__func__.WinGetFuncArgInPartition = private unnamed_addr constant [25 x i8] c"WinGetFuncArgInPartition\00", align 1

; Function Attrs: inlinehint nounwind uwtable
define internal ptr @list_nth_cell(ptr noundef %0, i32 noundef %1) #2 {
  %3 = alloca ptr, align 8
  %4 = alloca i32, align 4
  store ptr %0, ptr %3, align 8
  store i32 %1, ptr %4, align 4
  %5 = load ptr, ptr %3, align 8
  %6 = getelementptr inbounds nuw %struct.List, ptr %5, i32 0, i32 3
  %7 = load ptr, ptr %6, align 8
  %8 = load i32, ptr %4, align 4
  %9 = sext i32 %8 to i64
  %10 = getelementptr inbounds %union.ListCell, ptr %7, i64 %9
  ret ptr %10
}

; Function Attrs: inlinehint nounwind uwtable
define internal i64 @ExecEvalExpr(ptr noundef %0, ptr noundef %1, ptr noundef %2) #2 {
  %4 = alloca ptr, align 8
  %5 = alloca ptr, align 8
  %6 = alloca ptr, align 8
  store ptr %0, ptr %4, align 8
  store ptr %1, ptr %5, align 8
  store ptr %2, ptr %6, align 8
  %7 = load ptr, ptr %4, align 8
  %8 = getelementptr inbounds nuw %struct.ExprState, ptr %7, i32 0, i32 6
  %9 = load ptr, ptr %8, align 8
  %10 = load ptr, ptr %4, align 8
  %11 = load ptr, ptr %5, align 8
  %12 = load ptr, ptr %6, align 8
  %13 = call i64 %9(ptr noundef %10, ptr noundef %11, ptr noundef %12)
  ret i64 %13
}

; Function Attrs: inlinehint nounwind uwtable
define internal ptr @list_nth(ptr noundef %0, i32 noundef %1) #2 {
  %3 = alloca ptr, align 8
  %4 = alloca i32, align 4
  store ptr %0, ptr %3, align 8
  store i32 %1, ptr %4, align 4
  %5 = load ptr, ptr %3, align 8
  %6 = load i32, ptr %4, align 4
  %7 = call ptr @list_nth_cell(ptr noundef %5, i32 noundef %6)
  %8 = load ptr, ptr %7, align 8
  ret ptr %8
}

; Function Attrs: nounwind uwtable
define dso_local i64 @WinGetFuncArgInPartition(ptr noundef %0, i32 noundef %1, i32 noundef %2, i32 noundef %3, i1 noundef zeroext %4, ptr noundef %5, ptr noundef %6) #0 {
  %8 = alloca i64, align 8
  %9 = alloca ptr, align 8
  %10 = alloca i32, align 4
  %11 = alloca i32, align 4
  %12 = alloca i32, align 4
  %13 = alloca i8, align 1
  %14 = alloca ptr, align 8
  %15 = alloca ptr, align 8
  %16 = alloca ptr, align 8
  %17 = alloca ptr, align 8
  %18 = alloca ptr, align 8
  %19 = alloca i8, align 1
  %20 = alloca i64, align 8
  %21 = alloca i32, align 4
  store ptr %0, ptr %9, align 8
  store i32 %1, ptr %10, align 4
  store i32 %2, ptr %11, align 4
  store i32 %3, ptr %12, align 4
  %22 = zext i1 %4 to i8
  store i8 %22, ptr %13, align 1
  store ptr %5, ptr %14, align 8
  store ptr %6, ptr %15, align 8
  call void @llvm.lifetime.start.p0(i64 8, ptr %16) #8
  call void @llvm.lifetime.start.p0(i64 8, ptr %17) #8
  call void @llvm.lifetime.start.p0(i64 8, ptr %18) #8
  call void @llvm.lifetime.start.p0(i64 1, ptr %19) #8
  call void @llvm.lifetime.start.p0(i64 8, ptr %20) #8
  %23 = load ptr, ptr %9, align 8
  %24 = getelementptr inbounds nuw %struct.WindowObjectData, ptr %23, i32 0, i32 1
  %25 = load ptr, ptr %24, align 8
  store ptr %25, ptr %16, align 8
  %26 = load ptr, ptr %16, align 8
  %27 = getelementptr inbounds nuw %struct.WindowAggState, ptr %26, i32 0, i32 0
  %28 = getelementptr inbounds nuw %struct.ScanState, ptr %27, i32 0, i32 0
  %29 = getelementptr inbounds nuw %struct.PlanState, ptr %28, i32 0, i32 16
  %30 = load ptr, ptr %29, align 8
  store ptr %30, ptr %17, align 8
  %31 = load ptr, ptr %16, align 8
  %32 = getelementptr inbounds nuw %struct.WindowAggState, ptr %31, i32 0, i32 54
  %33 = load ptr, ptr %32, align 8
  store ptr %33, ptr %18, align 8
  %34 = load i32, ptr %12, align 4
  switch i32 %34, label %54 [
    i32 0, label %35
    i32 1, label %42
    i32 2, label %45
  ]

35:                                               ; preds = %7
  %36 = load ptr, ptr %16, align 8
  %37 = getelementptr inbounds nuw %struct.WindowAggState, ptr %36, i32 0, i32 14
  %38 = load i64, ptr %37, align 8
  %39 = load i32, ptr %11, align 4
  %40 = sext i32 %39 to i64
  %41 = add i64 %38, %40
  store i64 %41, ptr %20, align 8
  br label %66

42:                                               ; preds = %7
  %43 = load i32, ptr %11, align 4
  %44 = sext i32 %43 to i64
  store i64 %44, ptr %20, align 8
  br label %66

45:                                               ; preds = %7
  %46 = load ptr, ptr %16, align 8
  call void @spool_tuples(ptr noundef %46, i64 noundef -1)
  %47 = load ptr, ptr %16, align 8
  %48 = getelementptr inbounds nuw %struct.WindowAggState, ptr %47, i32 0, i32 13
  %49 = load i64, ptr %48, align 8
  %50 = sub i64 %49, 1
  %51 = load i32, ptr %11, align 4
  %52 = sext i32 %51 to i64
  %53 = add i64 %50, %52
  store i64 %53, ptr %20, align 8
  br label %66

54:                                               ; preds = %7
  br label %55

55:                                               ; preds = %54
  br i1 true, label %56, label %58

56:                                               ; preds = %55
  %57 = call zeroext i1 @errstart_cold(i32 noundef 21, ptr noundef null) #9
  br i1 %57, label %60, label %63

58:                                               ; preds = %55
  %59 = call zeroext i1 @errstart(i32 noundef 21, ptr noundef null)
  br i1 %59, label %60, label %63

60:                                               ; preds = %58, %56
  %61 = load i32, ptr %12, align 4
  %62 = call i32 (ptr, ...) @errmsg_internal(ptr noundef @.str.6, i32 noundef %61)
  call void @errfinish(ptr noundef @.str.3, i32 noundef 3404, ptr noundef @__func__.WinGetFuncArgInPartition)
  br label %63

63:                                               ; preds = %60, %58, %56
  unreachable

64:                                               ; No predecessors!
  br label %65

65:                                               ; preds = %64
  store i64 0, ptr %20, align 8
  br label %66

66:                                               ; preds = %65, %45, %42, %35
  %67 = load ptr, ptr %9, align 8
  %68 = load i64, ptr %20, align 8
  %69 = load ptr, ptr %18, align 8
  %70 = call zeroext i1 @window_gettupleslot(ptr noundef %67, i64 noundef %68, ptr noundef %69)
  %71 = zext i1 %70 to i8
  store i8 %71, ptr %19, align 1
  %72 = load i8, ptr %19, align 1, !range !4, !noundef !5
  %73 = trunc i8 %72 to i1
  br i1 %73, label %81, label %74

74:                                               ; preds = %66
  %75 = load ptr, ptr %15, align 8
  %76 = icmp ne ptr %75, null
  br i1 %76, label %77, label %79

77:                                               ; preds = %74
  %78 = load ptr, ptr %15, align 8
  store i8 1, ptr %78, align 1
  br label %79

79:                                               ; preds = %77, %74
  %80 = load ptr, ptr %14, align 8
  store i8 1, ptr %80, align 1
  store i64 0, ptr %8, align 8
  store i32 1, ptr %21, align 4
  br label %104

81:                                               ; preds = %66
  %82 = load ptr, ptr %15, align 8
  %83 = icmp ne ptr %82, null
  br i1 %83, label %84, label %86

84:                                               ; preds = %81
  %85 = load ptr, ptr %15, align 8
  store i8 0, ptr %85, align 1
  br label %86

86:                                               ; preds = %84, %81
  %87 = load i8, ptr %13, align 1, !range !4, !noundef !5
  %88 = trunc i8 %87 to i1
  br i1 %88, label %89, label %92

89:                                               ; preds = %86
  %90 = load ptr, ptr %9, align 8
  %91 = load i64, ptr %20, align 8
  call void @WinSetMarkPosition(ptr noundef %90, i64 noundef %91)
  br label %92

92:                                               ; preds = %89, %86
  %93 = load ptr, ptr %18, align 8
  %94 = load ptr, ptr %17, align 8
  %95 = getelementptr inbounds nuw %struct.ExprContext, ptr %94, i32 0, i32 3
  store ptr %93, ptr %95, align 8
  %96 = load ptr, ptr %9, align 8
  %97 = getelementptr inbounds nuw %struct.WindowObjectData, ptr %96, i32 0, i32 2
  %98 = load ptr, ptr %97, align 8
  %99 = load i32, ptr %10, align 4
  %100 = call ptr @list_nth(ptr noundef %98, i32 noundef %99)
  %101 = load ptr, ptr %17, align 8
  %102 = load ptr, ptr %14, align 8
  %103 = call i64 @ExecEvalExpr(ptr noundef %100, ptr noundef %101, ptr noundef %102)
  store i64 %103, ptr %8, align 8
  store i32 1, ptr %21, align 4
  br label %104

104:                                              ; preds = %92, %79
  call void @llvm.lifetime.end.p0(i64 8, ptr %20) #8
  call void @llvm.lifetime.end.p0(i64 1, ptr %19) #8
  call void @llvm.lifetime.end.p0(i64 8, ptr %18) #8
  call void @llvm.lifetime.end.p0(i64 8, ptr %17) #8
  call void @llvm.lifetime.end.p0(i64 8, ptr %16) #8
  %105 = load i64, ptr %8, align 8
  ret i64 %105
}