; Function Attrs: nounwind uwtable
define dso_local i64 @WinGetFuncArgInPartition(ptr noundef captures(none) %0, i32 noundef %1, i32 noundef %2, i32 noundef %3, i1 noundef zeroext %4, ptr noundef %5, ptr noundef writeonly captures(address_is_null) %6) local_unnamed_addr #0 {
  %8 = getelementptr inbounds nuw i8, ptr %0, i64 8
  %9 = load ptr, ptr %8, align 8
  %10 = getelementptr inbounds nuw i8, ptr %9, i64 128
  %11 = load ptr, ptr %10, align 8
  %12 = getelementptr inbounds nuw i8, ptr %9, i64 616
  %13 = load ptr, ptr %12, align 8
  switch i32 %3, label %27 [
    i32 0, label %14
    i32 1, label %19
    i32 2, label %21
  ]

14:                                               ; preds = %7
  %15 = getelementptr inbounds nuw i8, ptr %9, i64 304
  %16 = load i64, ptr %15, align 8
  %17 = sext i32 %2 to i64
  %18 = add i64 %16, %17
  br label %30

19:                                               ; preds = %7
  %20 = sext i32 %2 to i64
  br label %30

21:                                               ; preds = %7
  tail call fastcc void @spool_tuples(ptr noundef nonnull %9, i64 noundef -1)
  %22 = getelementptr inbounds nuw i8, ptr %9, i64 296
  %23 = load i64, ptr %22, align 8
  %24 = sext i32 %2 to i64
  %25 = add nsw i64 %24, -1
  %26 = add i64 %25, %23
  br label %30

27:                                               ; preds = %7
  %28 = tail call zeroext i1 @errstart_cold(i32 noundef 21, ptr noundef null) #10
  tail call void @llvm.assume(i1 %28)
  %29 = tail call i32 (ptr, ...) @errmsg_internal(ptr noundef nonnull @.str.6, i32 noundef %3) #9
  tail call void @errfinish(ptr noundef nonnull @.str.3, i32 noundef 3404, ptr noundef nonnull @__func__.WinGetFuncArgInPartition) #9
  unreachable

30:                                               ; preds = %21, %19, %14
  %.0 = phi i64 [ %26, %21 ], [ %20, %19 ], [ %18, %14 ]
  %31 = tail call fastcc zeroext i1 @window_gettupleslot(ptr noundef nonnull %0, i64 noundef %.0, ptr noundef %13)
  %.not31 = icmp eq ptr %6, null
  br i1 %31, label %35, label %32

32:                                               ; preds = %30
  br i1 %.not31, label %34, label %33

33:                                               ; preds = %32
  store i8 1, ptr %6, align 1
  br label %34

34:                                               ; preds = %33, %32
  store i8 1, ptr %5, align 1
  br label %50

35:                                               ; preds = %30
  br i1 %.not31, label %37, label %36

36:                                               ; preds = %35
  store i8 0, ptr %6, align 1
  br label %37

37:                                               ; preds = %36, %35
  br i1 %4, label %38, label %39

38:                                               ; preds = %37
  tail call void @WinSetMarkPosition(ptr noundef nonnull %0, i64 noundef %.0)
  br label %39

39:                                               ; preds = %38, %37
  %40 = getelementptr inbounds nuw i8, ptr %11, i64 24
  store ptr %13, ptr %40, align 8
  %41 = getelementptr inbounds nuw i8, ptr %0, i64 16
  %42 = load ptr, ptr %41, align 8
  %43 = getelementptr i8, ptr %42, i64 16
  %.val = load ptr, ptr %43, align 8
  %44 = sext i32 %1 to i64
  %45 = getelementptr inbounds %union.ListCell, ptr %.val, i64 %44
  %46 = load ptr, ptr %45, align 8
  %47 = getelementptr inbounds nuw i8, ptr %46, i64 32
  %48 = load ptr, ptr %47, align 8
  %49 = tail call i64 %48(ptr noundef %46, ptr noundef %11, ptr noundef %5) #9
  br label %50

50:                                               ; preds = %39, %34
  %.029 = phi i64 [ %49, %39 ], [ 0, %34 ]
  ret i64 %.029
}